target datalayout = "e-m:e-p270:32:32-p271:32:32-p272:64:64-i64:64-i128:128-f80:128-n8:16:32:64-S128"
target triple = "x86_64-pc-linux-gnu"

%struct.self_test_arg = type { ptr }
%struct.ossl_param_st = type { ptr, i32, ptr, i64, i64 }

@.str.50 = private unnamed_addr constant [9 x i8] c"st-phase\00", align 1
@.str.51 = private unnamed_addr constant [8 x i8] c"Corrupt\00", align 1
@.str.52 = private unnamed_addr constant [8 x i8] c"st-type\00", align 1

; Function Attrs: nounwind uwtable
define internal i32 @self_test_on_pairwise_fail(ptr noundef %0, ptr noundef %1) #0 {
  %3 = alloca i32, align 4
  %4 = alloca ptr, align 8
  %5 = alloca ptr, align 8
  %6 = alloca ptr, align 8
  %7 = alloca ptr, align 8
  %8 = alloca ptr, align 8
  %9 = alloca ptr, align 8
  %10 = alloca i32, align 4
  store ptr %0, ptr %4, align 8, !tbaa !25
  store ptr %1, ptr %5, align 8, !tbaa !27
  call void @llvm.lifetime.start.p0(i64 8, ptr %6) #4
  %11 = load ptr, ptr %5, align 8, !tbaa !27
  store ptr %11, ptr %6, align 8, !tbaa !28
  call void @llvm.lifetime.start.p0(i64 8, ptr %7) #4
  store ptr null, ptr %7, align 8, !tbaa !25
  call void @llvm.lifetime.start.p0(i64 8, ptr %8) #4
  store ptr null, ptr %8, align 8, !tbaa !4
  call void @llvm.lifetime.start.p0(i64 8, ptr %9) #4
  store ptr null, ptr %9, align 8, !tbaa !4
  %12 = load ptr, ptr %4, align 8, !tbaa !25
  %13 = call ptr @OSSL_PARAM_locate_const(ptr noundef %12, ptr noundef @.str.50)
  store ptr %13, ptr %7, align 8, !tbaa !25
  %14 = load ptr, ptr %7, align 8, !tbaa !25
  %15 = icmp eq ptr %14, null
  br i1 %15, label %21, label %16

16:                                               ; preds = %2
  %17 = load ptr, ptr %7, align 8, !tbaa !25
  %18 = getelementptr inbounds nuw %struct.ossl_param_st, ptr %17, i32 0, i32 1
  %19 = load i32, ptr %18, align 8, !tbaa !30
  %20 = icmp ne i32 %19, 4
  br i1 %20, label %21, label %22

21:                                               ; preds = %16, %2
  store i32 0, ptr %3, align 4
  store i32 1, ptr %10, align 4
  br label %53

22:                                               ; preds = %16
  %23 = load ptr, ptr %7, align 8, !tbaa !25
  %24 = getelementptr inbounds nuw %struct.ossl_param_st, ptr %23, i32 0, i32 2
  %25 = load ptr, ptr %24, align 8, !tbaa !33
  store ptr %25, ptr %9, align 8, !tbaa !4
  %26 = load ptr, ptr %9, align 8, !tbaa !4
  %27 = call i32 @strcmp(ptr noundef %26, ptr noundef @.str.51) #5
  %28 = icmp eq i32 %27, 0
  br i1 %28, label %29, label %52

29:                                               ; preds = %22
  %30 = load ptr, ptr %4, align 8, !tbaa !25
  %31 = call ptr @OSSL_PARAM_locate_const(ptr noundef %30, ptr noundef @.str.52)
  store ptr %31, ptr %7, align 8, !tbaa !25
  %32 = load ptr, ptr %7, align 8, !tbaa !25
  %33 = icmp eq ptr %32, null
  br i1 %33, label %39, label %34

34:                                               ; preds = %29
  %35 = load ptr, ptr %7, align 8, !tbaa !25
  %36 = getelementptr inbounds nuw %struct.ossl_param_st, ptr %35, i32 0, i32 1
  %37 = load i32, ptr %36, align 8, !tbaa !30
  %38 = icmp ne i32 %37, 4
  br i1 %38, label %39, label %40

39:                                               ; preds = %34, %29
  store i32 0, ptr %3, align 4
  store i32 1, ptr %10, align 4
  br label %53

40:                                               ; preds = %34
  %41 = load ptr, ptr %7, align 8, !tbaa !25
  %42 = getelementptr inbounds nuw %struct.ossl_param_st, ptr %41, i32 0, i32 2
  %43 = load ptr, ptr %42, align 8, !tbaa !33
  store ptr %43, ptr %8, align 8, !tbaa !4
  %44 = load ptr, ptr %8, align 8, !tbaa !4
  %45 = load ptr, ptr %6, align 8, !tbaa !28
  %46 = getelementptr inbounds nuw %struct.self_test_arg, ptr %45, i32 0, i32 0
  %47 = load ptr, ptr %46, align 8, !tbaa !23
  %48 = call i32 @strcmp(ptr noundef %44, ptr noundef %47) #5
  %49 = icmp eq i32 %48, 0
  br i1 %49, label %50, label %51

50:                                               ; preds = %40
  store i32 0, ptr %3, align 4
  store i32 1, ptr %10, align 4
  br label %53

51:                                               ; preds = %40
  br label %52

52:                                               ; preds = %51, %22
  store i32 1, ptr %3, align 4
  store i32 1, ptr %10, align 4
  br label %53

53:                                               ; preds = %52, %50, %39, %21
  call void @llvm.lifetime.end.p0(i64 8, ptr %9) #4
  call void @llvm.lifetime.end.p0(i64 8, ptr %8) #4
  call void @llvm.lifetime.end.p0(i64 8, ptr %7) #4
  call void @llvm.lifetime.end.p0(i64 8, ptr %6) #4
  %54 = load i32, ptr %3, align 4
  ret i32 %54
}