; Function Attrs: nounwind uwtable
define internal range(i32 0, 2) i32 @self_test_on_pairwise_fail(ptr noundef %0, ptr noundef readonly captures(none) %1) #1 {
  %3 = tail call ptr @OSSL_PARAM_locate_const(ptr noundef %0, ptr noundef nonnull @.str.50) #5
  %4 = icmp eq ptr %3, null
  br i1 %4, label %26, label %5

5:                                                ; preds = %2
  %6 = getelementptr inbounds nuw i8, ptr %3, i64 8
  %7 = load i32, ptr %6, align 8, !tbaa !17
  %.not = icmp eq i32 %7, 4
  br i1 %.not, label %8, label %26

8:                                                ; preds = %5
  %9 = getelementptr inbounds nuw i8, ptr %3, i64 16
  %10 = load ptr, ptr %9, align 8, !tbaa !21
  %11 = tail call i32 @strcmp(ptr noundef nonnull dereferenceable(1) %10, ptr noundef nonnull dereferenceable(8) @.str.51) #6
  %12 = icmp eq i32 %11, 0
  br i1 %12, label %13, label %25

13:                                               ; preds = %8
  %14 = tail call ptr @OSSL_PARAM_locate_const(ptr noundef %0, ptr noundef nonnull @.str.52) #5
  %15 = icmp eq ptr %14, null
  br i1 %15, label %26, label %16

16:                                               ; preds = %13
  %17 = getelementptr inbounds nuw i8, ptr %14, i64 8
  %18 = load i32, ptr %17, align 8, !tbaa !17
  %.not14 = icmp eq i32 %18, 4
  br i1 %.not14, label %19, label %26

19:                                               ; preds = %16
  %20 = getelementptr inbounds nuw i8, ptr %14, i64 16
  %21 = load ptr, ptr %20, align 8, !tbaa !21
  %22 = load ptr, ptr %1, align 8, !tbaa !15
  %23 = tail call i32 @strcmp(ptr noundef nonnull dereferenceable(1) %21, ptr noundef nonnull dereferenceable(1) %22) #6
  %24 = icmp eq i32 %23, 0
  br i1 %24, label %26, label %25

25:                                               ; preds = %19, %8
  br label %26

26:                                               ; preds = %19, %13, %16, %2, %5, %25
  %.0 = phi i32 [ 1, %25 ], [ 0, %5 ], [ 0, %2 ], [ 0, %16 ], [ 0, %13 ], [ 0, %19 ]
  ret i32 %.0
}